; Function Attrs: mustprogress nounwind uwtable
define dso_local noundef zeroext i1 @_ZN5clang5index32generateUSRFragmentForModuleNameEN4llvm9StringRefERNS1_11raw_ostreamE(ptr %0, i64 %1, ptr noundef nonnull align 8 dereferenceable(48) %2) local_unnamed_addr #0 {
  %4 = getelementptr inbounds nuw i8, ptr %2, i64 24
  %5 = load ptr, ptr %4, align 8
  %6 = getelementptr inbounds nuw i8, ptr %2, i64 32
  %7 = load ptr, ptr %6, align 8
  %8 = ptrtoint ptr %5 to i64
  %9 = ptrtoint ptr %7 to i64
  %10 = sub i64 %8, %9
  %11 = icmp ult i64 %10, 3
  br i1 %11, label %12, label %14

12:                                               ; preds = %3
  %13 = tail call noundef nonnull align 8 dereferenceable(48) ptr @_ZN4llvm11raw_ostream5writeEPKcm(ptr noundef nonnull align 8 dereferenceable(48) %2, ptr noundef nonnull @.str.6, i64 noundef 3) #14
  %.phi.trans.insert = getelementptr inbounds nuw i8, ptr %13, i64 32
  %.pre = load ptr, ptr %.phi.trans.insert, align 8
  br label %_ZN4llvm11raw_ostreamlsEPKc.exit

14:                                               ; preds = %3
  tail call void @llvm.memcpy.p0.p0.i64(ptr noundef nonnull align 1 dereferenceable(3) %7, ptr noundef nonnull align 1 dereferenceable(3) @.str.6, i64 3, i1 false)
  %15 = load ptr, ptr %6, align 8
  %16 = getelementptr inbounds nuw i8, ptr %15, i64 3
  store ptr %16, ptr %6, align 8
  br label %_ZN4llvm11raw_ostreamlsEPKc.exit

_ZN4llvm11raw_ostreamlsEPKc.exit:                 ; preds = %12, %14
  %17 = phi ptr [ %.pre, %12 ], [ %16, %14 ]
  %.0.i.i = phi ptr [ %13, %12 ], [ %2, %14 ]
  %18 = getelementptr inbounds nuw i8, ptr %.0.i.i, i64 24
  %19 = load ptr, ptr %18, align 8
  %20 = getelementptr inbounds nuw i8, ptr %.0.i.i, i64 32
  %21 = ptrtoint ptr %19 to i64
  %22 = ptrtoint ptr %17 to i64
  %23 = sub i64 %21, %22
  %24 = icmp ugt i64 %1, %23
  br i1 %24, label %25, label %27

25:                                               ; preds = %_ZN4llvm11raw_ostreamlsEPKc.exit
  %26 = tail call noundef nonnull align 8 dereferenceable(48) ptr @_ZN4llvm11raw_ostream5writeEPKcm(ptr noundef nonnull align 8 dereferenceable(48) %.0.i.i, ptr noundef %0, i64 noundef %1) #14
  br label %_ZN4llvm11raw_ostreamlsENS_9StringRefE.exit

27:                                               ; preds = %_ZN4llvm11raw_ostreamlsEPKc.exit
  %.not.i = icmp eq i64 %1, 0
  br i1 %.not.i, label %_ZN4llvm11raw_ostreamlsENS_9StringRefE.exit, label %28

28:                                               ; preds = %27
  tail call void @llvm.memcpy.p0.p0.i64(ptr align 1 %17, ptr align 1 %0, i64 %1, i1 false)
  %29 = load ptr, ptr %20, align 8
  %30 = getelementptr inbounds i8, ptr %29, i64 %1
  store ptr %30, ptr %20, align 8
  br label %_ZN4llvm11raw_ostreamlsENS_9StringRefE.exit

_ZN4llvm11raw_ostreamlsENS_9StringRefE.exit:      ; preds = %25, %27, %28
  ret i1 false
}